; Function Attrs: nounwind uwtable
define dso_local zeroext i1 @bounds_adjacent(ptr noundef %0, i64 %1, i64 %2, i64 %3, i64 %4) local_unnamed_addr #0 {
  %6 = alloca %struct.RangeBound, align 8
  %7 = alloca %struct.RangeBound, align 8
  store i64 %1, ptr %6, align 8
  %8 = getelementptr inbounds nuw i8, ptr %6, i64 8
  store i64 %2, ptr %8, align 8
  store i64 %3, ptr %7, align 8
  %9 = getelementptr inbounds nuw i8, ptr %7, i64 8
  store i64 %4, ptr %9, align 8
  %10 = trunc i64 %2 to i1
  %11 = trunc i64 %4 to i1
  %12 = lshr i64 %4, 16
  %13 = trunc i64 %12 to i8
  %14 = lshr i64 %2, 16
  %15 = trunc i64 %14 to i8
  %16 = lshr i64 %2, 8
  %17 = trunc i64 %16 to i8
  %18 = lshr i64 %4, 8
  %19 = trunc i64 %18 to i8
  br i1 %10, label %20, label %27

20:                                               ; preds = %5
  br i1 %11, label %21, label %25

21:                                               ; preds = %20
  %22 = icmp eq i8 %15, %13
  br i1 %22, label %range_cmp_bound_values.exit.thread.thread15, label %23

23:                                               ; preds = %21
  %24 = trunc i64 %14 to i1
  br i1 %24, label %range_cmp_bound_values.exit.thread12, label %range_cmp_bound_values.exit.thread.thread

25:                                               ; preds = %20
  %26 = trunc i64 %14 to i1
  br i1 %26, label %range_cmp_bound_values.exit.thread12, label %range_cmp_bound_values.exit.thread.thread

27:                                               ; preds = %5
  br i1 %11, label %28, label %range_cmp_bound_values.exit

28:                                               ; preds = %27
  %29 = trunc i64 %12 to i1
  br i1 %29, label %range_cmp_bound_values.exit.thread.thread, label %range_cmp_bound_values.exit.thread12

range_cmp_bound_values.exit:                      ; preds = %27
  %30 = getelementptr inbounds nuw i8, ptr %0, i64 296
  %31 = getelementptr inbounds nuw i8, ptr %0, i64 292
  %32 = load i32, ptr %31, align 4
  %33 = tail call i64 @FunctionCall2Coll(ptr noundef nonnull %30, i32 noundef %32, i64 noundef %1, i64 noundef %3) #14
  %34 = trunc i64 %33 to i32
  %35 = icmp slt i32 %34, 0
  br i1 %35, label %range_cmp_bound_values.exit.thread12, label %range_cmp_bound_values.exit.thread

range_cmp_bound_values.exit.thread12:             ; preds = %25, %23, %28, %range_cmp_bound_values.exit
  %36 = getelementptr inbounds nuw i8, ptr %0, i64 352
  %37 = load i32, ptr %36, align 8
  %.not = icmp eq i32 %37, 0
  br i1 %.not, label %range_cmp_bound_values.exit.thread.thread, label %38

38:                                               ; preds = %range_cmp_bound_values.exit.thread12
  %39 = getelementptr inbounds nuw i8, ptr %6, i64 9
  %40 = xor i8 %17, 1
  store i8 %40, ptr %39, align 1
  %41 = getelementptr inbounds nuw i8, ptr %7, i64 9
  %42 = xor i8 %19, 1
  store i8 %42, ptr %41, align 1
  %43 = getelementptr inbounds nuw i8, ptr %6, i64 10
  store i8 1, ptr %43, align 2
  %44 = getelementptr inbounds nuw i8, ptr %7, i64 10
  store i8 0, ptr %44, align 2
  %45 = call ptr @make_range(ptr noundef nonnull %0, ptr noundef nonnull %6, ptr noundef nonnull %7, i1 noundef zeroext false, ptr noundef null)
  %46 = load i32, ptr %45, align 4
  %47 = lshr i32 %46, 2
  %48 = zext nneg i32 %47 to i64
  %49 = getelementptr inbounds nuw i8, ptr %45, i64 %48
  %50 = getelementptr inbounds i8, ptr %49, i64 -1
  %51 = load i8, ptr %50, align 1
  %52 = and i8 %51, 1
  %53 = icmp ne i8 %52, 0
  br label %range_cmp_bound_values.exit.thread.thread

range_cmp_bound_values.exit.thread:               ; preds = %range_cmp_bound_values.exit
  %54 = icmp eq i32 %34, 0
  br i1 %54, label %range_cmp_bound_values.exit.thread.thread15, label %range_cmp_bound_values.exit.thread.thread

range_cmp_bound_values.exit.thread.thread15:      ; preds = %21, %range_cmp_bound_values.exit.thread
  %55 = icmp ne i8 %17, %19
  br label %range_cmp_bound_values.exit.thread.thread

range_cmp_bound_values.exit.thread.thread:        ; preds = %28, %23, %25, %range_cmp_bound_values.exit.thread, %38, %range_cmp_bound_values.exit.thread12, %range_cmp_bound_values.exit.thread.thread15
  %.1 = phi i1 [ %55, %range_cmp_bound_values.exit.thread.thread15 ], [ %53, %38 ], [ false, %range_cmp_bound_values.exit.thread12 ], [ false, %range_cmp_bound_values.exit.thread ], [ false, %25 ], [ false, %23 ], [ false, %28 ]
  ret i1 %.1
}